; ModuleID = '20/537.c'
source_filename = "20/537.c"
target datalayout = "e-m:e-p270:32:32-p271:32:32-p272:64:64-i64:64-f80:128-n8:16:32:64-S128"
target triple = "x86_64-pc-linux-gnu"

@.str = private unnamed_addr constant [6 x i8] c"%s %s\00", align 1
@.str.1 = private unnamed_addr constant [3 x i8] c"%c\00", align 1
@.str.2 = private unnamed_addr constant [2 x i8] c"\0A\00", align 1

; Function Attrs: noinline nounwind uwtable
define dso_local void @main() #0 {
  %1 = alloca [15 x i8], align 1
  %2 = alloca [4 x i8], align 1
  %3 = alloca i8*, align 8
  %4 = alloca i8, align 1
  %5 = alloca i8*, align 8
  %6 = alloca i32, align 4
  %7 = alloca i32, align 4
  %8 = alloca i32, align 4
  store i32 0, i32* %7, align 4
  br label %9

9:                                                ; preds = %97, %0
  %10 = getelementptr inbounds [15 x i8], [15 x i8]* %1, i64 0, i64 0
  %11 = getelementptr inbounds [4 x i8], [4 x i8]* %2, i64 0, i64 0
  %12 = call i32 (i8*, ...) @__isoc99_scanf(i8* getelementptr inbounds ([6 x i8], [6 x i8]* @.str, i64 0, i64 0), i8* %10, i8* %11)
  %13 = icmp ne i32 %12, -1
  br i1 %13, label %14, label %99

14:                                               ; preds = %9
  %15 = getelementptr inbounds [15 x i8], [15 x i8]* %1, i64 0, i64 0
  %16 = call i64 @strlen(i8* %15) #3
  %17 = trunc i64 %16 to i32
  store i32 %17, i32* %8, align 4
  %18 = getelementptr inbounds [15 x i8], [15 x i8]* %1, i64 0, i64 0
  store i8* %18, i8** %3, align 8
  %19 = getelementptr inbounds [4 x i8], [4 x i8]* %2, i64 0, i64 0
  store i8* %19, i8** %5, align 8
  %20 = load i8*, i8** %3, align 8
  %21 = load i8, i8* %20, align 1
  store i8 %21, i8* %4, align 1
  store i32 0, i32* %6, align 4
  br label %22

22:                                               ; preds = %44, %14
  %23 = load i32, i32* %6, align 4
  %24 = load i32, i32* %8, align 4
  %25 = icmp slt i32 %23, %24
  br i1 %25, label %26, label %47

26:                                               ; preds = %22
  %27 = load i8*, i8** %3, align 8
  %28 = load i32, i32* %6, align 4
  %29 = sext i32 %28 to i64
  %30 = getelementptr inbounds i8, i8* %27, i64 %29
  %31 = load i8, i8* %30, align 1
  %32 = sext i8 %31 to i32
  %33 = load i8, i8* %4, align 1
  %34 = sext i8 %33 to i32
  %35 = icmp sgt i32 %32, %34
  br i1 %35, label %36, label %43

36:                                               ; preds = %26
  %37 = load i8*, i8** %3, align 8
  %38 = load i32, i32* %6, align 4
  %39 = sext i32 %38 to i64
  %40 = getelementptr inbounds i8, i8* %37, i64 %39
  %41 = load i8, i8* %40, align 1
  store i8 %41, i8* %4, align 1
  %42 = load i32, i32* %6, align 4
  store i32 %42, i32* %7, align 4
  br label %43

43:                                               ; preds = %36, %26
  br label %44

44:                                               ; preds = %43
  %45 = load i32, i32* %6, align 4
  %46 = add nsw i32 %45, 1
  store i32 %46, i32* %6, align 4
  br label %22

47:                                               ; preds = %22
  store i32 0, i32* %6, align 4
  br label %48

48:                                               ; preds = %61, %47
  %49 = load i32, i32* %6, align 4
  %50 = load i32, i32* %7, align 4
  %51 = add nsw i32 %50, 1
  %52 = icmp slt i32 %49, %51
  br i1 %52, label %53, label %64

53:                                               ; preds = %48
  %54 = load i8*, i8** %3, align 8
  %55 = load i32, i32* %6, align 4
  %56 = sext i32 %55 to i64
  %57 = getelementptr inbounds i8, i8* %54, i64 %56
  %58 = load i8, i8* %57, align 1
  %59 = sext i8 %58 to i32
  %60 = call i32 (i8*, ...) @printf(i8* getelementptr inbounds ([3 x i8], [3 x i8]* @.str.1, i64 0, i64 0), i32 %59)
  br label %61

61:                                               ; preds = %53
  %62 = load i32, i32* %6, align 4
  %63 = add nsw i32 %62, 1
  store i32 %63, i32* %6, align 4
  br label %48

64:                                               ; preds = %48
  store i32 0, i32* %6, align 4
  br label %65

65:                                               ; preds = %76, %64
  %66 = load i32, i32* %6, align 4
  %67 = icmp slt i32 %66, 3
  br i1 %67, label %68, label %79

68:                                               ; preds = %65
  %69 = load i8*, i8** %5, align 8
  %70 = load i32, i32* %6, align 4
  %71 = sext i32 %70 to i64
  %72 = getelementptr inbounds i8, i8* %69, i64 %71
  %73 = load i8, i8* %72, align 1
  %74 = sext i8 %73 to i32
  %75 = call i32 (i8*, ...) @printf(i8* getelementptr inbounds ([3 x i8], [3 x i8]* @.str.1, i64 0, i64 0), i32 %74)
  br label %76

76:                                               ; preds = %68
  %77 = load i32, i32* %6, align 4
  %78 = add nsw i32 %77, 1
  store i32 %78, i32* %6, align 4
  br label %65

79:                                               ; preds = %65
  %80 = load i32, i32* %7, align 4
  %81 = add nsw i32 %80, 1
  store i32 %81, i32* %6, align 4
  br label %82

82:                                               ; preds = %94, %79
  %83 = load i32, i32* %6, align 4
  %84 = load i32, i32* %8, align 4
  %85 = icmp slt i32 %83, %84
  br i1 %85, label %86, label %97

86:                                               ; preds = %82
  %87 = load i8*, i8** %3, align 8
  %88 = load i32, i32* %6, align 4
  %89 = sext i32 %88 to i64
  %90 = getelementptr inbounds i8, i8* %87, i64 %89
  %91 = load i8, i8* %90, align 1
  %92 = sext i8 %91 to i32
  %93 = call i32 (i8*, ...) @printf(i8* getelementptr inbounds ([3 x i8], [3 x i8]* @.str.1, i64 0, i64 0), i32 %92)
  br label %94

94:                                               ; preds = %86
  %95 = load i32, i32* %6, align 4
  %96 = add nsw i32 %95, 1
  store i32 %96, i32* %6, align 4
  br label %82

97:                                               ; preds = %82
  %98 = call i32 (i8*, ...) @printf(i8* getelementptr inbounds ([2 x i8], [2 x i8]* @.str.2, i64 0, i64 0))
  br label %9

99:                                               ; preds = %9
  ret void
}

declare dso_local i32 @__isoc99_scanf(i8*, ...) #1

; Function Attrs: nounwind readonly
declare dso_local i64 @strlen(i8*) #2

declare dso_local i32 @printf(i8*, ...) #1


!llvm.module.flags = !{!0}
!llvm.ident = !{!1}

!0 = !{i32 1, !"wchar_size", i32 4}
!1 = !{!"clang version 10.0.0-4ubuntu1 "}
